#include <math.h>
#include <stdio.h>
#include <stdlib.h>
#include <string.h>


int reverse(int num)
{
    int i,j,l,shang;
    i=0;
    shang=1;
    int zhuanhuan[1000];
    int jieguo;
    if(num>0)
    {
       jieguo=0;
       shang=num;
       while(shang!=0)
       {
       zhuanhuan[i]=shang%10;
       shang=shang/10;
       i++;
       }         
       j=i;
       for(i=0;i<j;i++)
       {
          for(l=0;l<i;l++)
          {
             zhuanhuan[j-i-1]=zhuanhuan[j-i-1]*10;          
          }                
          jieguo=jieguo+zhuanhuan[j-i-1];
       }
       return jieguo;
    } 
    else if(num==0) 
    {
        jieguo=0;
        return jieguo;
    }
    else
    {
      jieguo=0;
       shang=0-num;
       while(shang!=0)
       {
       zhuanhuan[i]=shang%10;
       shang=shang/10;
       i++;
       }         
       j=i;
       for(i=0;i<j;i++)
       {
          for(l=0;l<i;l++)
          {
             zhuanhuan[j-i-1]=zhuanhuan[j-i-1]*10;          
          }                
          jieguo=jieguo+zhuanhuan[j-i-1];
       }
       
       jieguo=0-jieguo;
       return jieguo;
    }
}

int main()
{
   int a,i;
   int shuru[6];
   int jieguo[6];
   
   
   for(i=0;i<6;i++)
   {
      scanf("%d",&shuru[i]);
   }
   
   for(i=0;i<6;i++)
   {
    jieguo[i]=reverse(shuru[i]);              
   }
   
    for(i=0;i<6;i++)
   {
      printf("%d\n",jieguo[i]);
   }
   
   getchar();
   getchar();
 
}
