; ModuleID = '44/39.c'
source_filename = "44/39.c"
target datalayout = "e-m:e-p270:32:32-p271:32:32-p272:64:64-i64:64-f80:128-n8:16:32:64-S128"
target triple = "x86_64-pc-linux-gnu"

@.str = private unnamed_addr constant [3 x i8] c"%d\00", align 1
@.str.1 = private unnamed_addr constant [4 x i8] c"%d\0A\00", align 1

; Function Attrs: noinline nounwind uwtable
define dso_local i32 @reverse(i32 %0) #0 {
  %2 = alloca i32, align 4
  %3 = alloca i32, align 4
  %4 = alloca i32, align 4
  %5 = alloca i32, align 4
  %6 = alloca i32, align 4
  %7 = alloca i32, align 4
  %8 = alloca [1000 x i32], align 16
  %9 = alloca i32, align 4
  store i32 %0, i32* %3, align 4
  store i32 0, i32* %4, align 4
  store i32 1, i32* %7, align 4
  %10 = load i32, i32* %3, align 4
  %11 = icmp sgt i32 %10, 0
  br i1 %11, label %12, label %71

12:                                               ; preds = %1
  store i32 0, i32* %9, align 4
  %13 = load i32, i32* %3, align 4
  store i32 %13, i32* %7, align 4
  br label %14

14:                                               ; preds = %17, %12
  %15 = load i32, i32* %7, align 4
  %16 = icmp ne i32 %15, 0
  br i1 %16, label %17, label %27

17:                                               ; preds = %14
  %18 = load i32, i32* %7, align 4
  %19 = srem i32 %18, 10
  %20 = load i32, i32* %4, align 4
  %21 = sext i32 %20 to i64
  %22 = getelementptr inbounds [1000 x i32], [1000 x i32]* %8, i64 0, i64 %21
  store i32 %19, i32* %22, align 4
  %23 = load i32, i32* %7, align 4
  %24 = sdiv i32 %23, 10
  store i32 %24, i32* %7, align 4
  %25 = load i32, i32* %4, align 4
  %26 = add nsw i32 %25, 1
  store i32 %26, i32* %4, align 4
  br label %14

27:                                               ; preds = %14
  %28 = load i32, i32* %4, align 4
  store i32 %28, i32* %5, align 4
  store i32 0, i32* %4, align 4
  br label %29

29:                                               ; preds = %66, %27
  %30 = load i32, i32* %4, align 4
  %31 = load i32, i32* %5, align 4
  %32 = icmp slt i32 %30, %31
  br i1 %32, label %33, label %69

33:                                               ; preds = %29
  store i32 0, i32* %6, align 4
  br label %34

34:                                               ; preds = %53, %33
  %35 = load i32, i32* %6, align 4
  %36 = load i32, i32* %4, align 4
  %37 = icmp slt i32 %35, %36
  br i1 %37, label %38, label %56

38:                                               ; preds = %34
  %39 = load i32, i32* %5, align 4
  %40 = load i32, i32* %4, align 4
  %41 = sub nsw i32 %39, %40
  %42 = sub nsw i32 %41, 1
  %43 = sext i32 %42 to i64
  %44 = getelementptr inbounds [1000 x i32], [1000 x i32]* %8, i64 0, i64 %43
  %45 = load i32, i32* %44, align 4
  %46 = mul nsw i32 %45, 10
  %47 = load i32, i32* %5, align 4
  %48 = load i32, i32* %4, align 4
  %49 = sub nsw i32 %47, %48
  %50 = sub nsw i32 %49, 1
  %51 = sext i32 %50 to i64
  %52 = getelementptr inbounds [1000 x i32], [1000 x i32]* %8, i64 0, i64 %51
  store i32 %46, i32* %52, align 4
  br label %53

53:                                               ; preds = %38
  %54 = load i32, i32* %6, align 4
  %55 = add nsw i32 %54, 1
  store i32 %55, i32* %6, align 4
  br label %34

56:                                               ; preds = %34
  %57 = load i32, i32* %9, align 4
  %58 = load i32, i32* %5, align 4
  %59 = load i32, i32* %4, align 4
  %60 = sub nsw i32 %58, %59
  %61 = sub nsw i32 %60, 1
  %62 = sext i32 %61 to i64
  %63 = getelementptr inbounds [1000 x i32], [1000 x i32]* %8, i64 0, i64 %62
  %64 = load i32, i32* %63, align 4
  %65 = add nsw i32 %57, %64
  store i32 %65, i32* %9, align 4
  br label %66

66:                                               ; preds = %56
  %67 = load i32, i32* %4, align 4
  %68 = add nsw i32 %67, 1
  store i32 %68, i32* %4, align 4
  br label %29

69:                                               ; preds = %29
  %70 = load i32, i32* %9, align 4
  store i32 %70, i32* %2, align 4
  br label %138

71:                                               ; preds = %1
  %72 = load i32, i32* %3, align 4
  %73 = icmp eq i32 %72, 0
  br i1 %73, label %74, label %76

74:                                               ; preds = %71
  store i32 0, i32* %9, align 4
  %75 = load i32, i32* %9, align 4
  store i32 %75, i32* %2, align 4
  br label %138

76:                                               ; preds = %71
  store i32 0, i32* %9, align 4
  %77 = load i32, i32* %3, align 4
  %78 = sub nsw i32 0, %77
  store i32 %78, i32* %7, align 4
  br label %79

79:                                               ; preds = %82, %76
  %80 = load i32, i32* %7, align 4
  %81 = icmp ne i32 %80, 0
  br i1 %81, label %82, label %92

82:                                               ; preds = %79
  %83 = load i32, i32* %7, align 4
  %84 = srem i32 %83, 10
  %85 = load i32, i32* %4, align 4
  %86 = sext i32 %85 to i64
  %87 = getelementptr inbounds [1000 x i32], [1000 x i32]* %8, i64 0, i64 %86
  store i32 %84, i32* %87, align 4
  %88 = load i32, i32* %7, align 4
  %89 = sdiv i32 %88, 10
  store i32 %89, i32* %7, align 4
  %90 = load i32, i32* %4, align 4
  %91 = add nsw i32 %90, 1
  store i32 %91, i32* %4, align 4
  br label %79

92:                                               ; preds = %79
  %93 = load i32, i32* %4, align 4
  store i32 %93, i32* %5, align 4
  store i32 0, i32* %4, align 4
  br label %94

94:                                               ; preds = %131, %92
  %95 = load i32, i32* %4, align 4
  %96 = load i32, i32* %5, align 4
  %97 = icmp slt i32 %95, %96
  br i1 %97, label %98, label %134

98:                                               ; preds = %94
  store i32 0, i32* %6, align 4
  br label %99

99:                                               ; preds = %118, %98
  %100 = load i32, i32* %6, align 4
  %101 = load i32, i32* %4, align 4
  %102 = icmp slt i32 %100, %101
  br i1 %102, label %103, label %121

103:                                              ; preds = %99
  %104 = load i32, i32* %5, align 4
  %105 = load i32, i32* %4, align 4
  %106 = sub nsw i32 %104, %105
  %107 = sub nsw i32 %106, 1
  %108 = sext i32 %107 to i64
  %109 = getelementptr inbounds [1000 x i32], [1000 x i32]* %8, i64 0, i64 %108
  %110 = load i32, i32* %109, align 4
  %111 = mul nsw i32 %110, 10
  %112 = load i32, i32* %5, align 4
  %113 = load i32, i32* %4, align 4
  %114 = sub nsw i32 %112, %113
  %115 = sub nsw i32 %114, 1
  %116 = sext i32 %115 to i64
  %117 = getelementptr inbounds [1000 x i32], [1000 x i32]* %8, i64 0, i64 %116
  store i32 %111, i32* %117, align 4
  br label %118

118:                                              ; preds = %103
  %119 = load i32, i32* %6, align 4
  %120 = add nsw i32 %119, 1
  store i32 %120, i32* %6, align 4
  br label %99

121:                                              ; preds = %99
  %122 = load i32, i32* %9, align 4
  %123 = load i32, i32* %5, align 4
  %124 = load i32, i32* %4, align 4
  %125 = sub nsw i32 %123, %124
  %126 = sub nsw i32 %125, 1
  %127 = sext i32 %126 to i64
  %128 = getelementptr inbounds [1000 x i32], [1000 x i32]* %8, i64 0, i64 %127
  %129 = load i32, i32* %128, align 4
  %130 = add nsw i32 %122, %129
  store i32 %130, i32* %9, align 4
  br label %131

131:                                              ; preds = %121
  %132 = load i32, i32* %4, align 4
  %133 = add nsw i32 %132, 1
  store i32 %133, i32* %4, align 4
  br label %94

134:                                              ; preds = %94
  %135 = load i32, i32* %9, align 4
  %136 = sub nsw i32 0, %135
  store i32 %136, i32* %9, align 4
  %137 = load i32, i32* %9, align 4
  store i32 %137, i32* %2, align 4
  br label %138

138:                                              ; preds = %134, %74, %69
  %139 = load i32, i32* %2, align 4
  ret i32 %139
}

; Function Attrs: noinline nounwind uwtable
define dso_local i32 @main() #0 {
  %1 = alloca i32, align 4
  %2 = alloca i32, align 4
  %3 = alloca i32, align 4
  %4 = alloca [6 x i32], align 16
  %5 = alloca [6 x i32], align 16
  store i32 0, i32* %1, align 4
  store i32 0, i32* %3, align 4
  br label %6

6:                                                ; preds = %14, %0
  %7 = load i32, i32* %3, align 4
  %8 = icmp slt i32 %7, 6
  br i1 %8, label %9, label %17

9:                                                ; preds = %6
  %10 = load i32, i32* %3, align 4
  %11 = sext i32 %10 to i64
  %12 = getelementptr inbounds [6 x i32], [6 x i32]* %4, i64 0, i64 %11
  %13 = call i32 (i8*, ...) @__isoc99_scanf(i8* getelementptr inbounds ([3 x i8], [3 x i8]* @.str, i64 0, i64 0), i32* %12)
  br label %14

14:                                               ; preds = %9
  %15 = load i32, i32* %3, align 4
  %16 = add nsw i32 %15, 1
  store i32 %16, i32* %3, align 4
  br label %6

17:                                               ; preds = %6
  store i32 0, i32* %3, align 4
  br label %18

18:                                               ; preds = %30, %17
  %19 = load i32, i32* %3, align 4
  %20 = icmp slt i32 %19, 6
  br i1 %20, label %21, label %33

21:                                               ; preds = %18
  %22 = load i32, i32* %3, align 4
  %23 = sext i32 %22 to i64
  %24 = getelementptr inbounds [6 x i32], [6 x i32]* %4, i64 0, i64 %23
  %25 = load i32, i32* %24, align 4
  %26 = call i32 @reverse(i32 %25)
  %27 = load i32, i32* %3, align 4
  %28 = sext i32 %27 to i64
  %29 = getelementptr inbounds [6 x i32], [6 x i32]* %5, i64 0, i64 %28
  store i32 %26, i32* %29, align 4
  br label %30

30:                                               ; preds = %21
  %31 = load i32, i32* %3, align 4
  %32 = add nsw i32 %31, 1
  store i32 %32, i32* %3, align 4
  br label %18

33:                                               ; preds = %18
  store i32 0, i32* %3, align 4
  br label %34

34:                                               ; preds = %43, %33
  %35 = load i32, i32* %3, align 4
  %36 = icmp slt i32 %35, 6
  br i1 %36, label %37, label %46

37:                                               ; preds = %34
  %38 = load i32, i32* %3, align 4
  %39 = sext i32 %38 to i64
  %40 = getelementptr inbounds [6 x i32], [6 x i32]* %5, i64 0, i64 %39
  %41 = load i32, i32* %40, align 4
  %42 = call i32 (i8*, ...) @printf(i8* getelementptr inbounds ([4 x i8], [4 x i8]* @.str.1, i64 0, i64 0), i32 %41)
  br label %43

43:                                               ; preds = %37
  %44 = load i32, i32* %3, align 4
  %45 = add nsw i32 %44, 1
  store i32 %45, i32* %3, align 4
  br label %34

46:                                               ; preds = %34
  %47 = call i32 @getchar()
  %48 = call i32 @getchar()
  %49 = load i32, i32* %1, align 4
  ret i32 %49
}

declare dso_local i32 @__isoc99_scanf(i8*, ...) #1

declare dso_local i32 @printf(i8*, ...) #1

declare dso_local i32 @getchar() #1


!llvm.module.flags = !{!0}
!llvm.ident = !{!1}

!0 = !{i32 1, !"wchar_size", i32 4}
!1 = !{!"clang version 10.0.0-4ubuntu1 "}
